; Function Attrs: mustprogress uwtable
define dso_local void @_ZN16cmLocalGenerator27CreateEvaluationFileOutputsERKNSt7__cxx1112basic_stringIcSt11char_traitsIcESaIcEEE(ptr noundef nonnull align 8 dereferenceable(824) %0, ptr noundef nonnull align 8 dereferenceable(32) %1) local_unnamed_addr #3 align 2 {
  %3 = getelementptr inbounds i8, ptr %0, i64 112
  %4 = load ptr, ptr %3, align 8
  %5 = tail call noundef nonnull align 8 dereferenceable(24) ptr @_ZNK10cmMakefile18GetEvaluationFilesEv(ptr noundef nonnull align 8 dereferenceable(3520) %4)
  %6 = load ptr, ptr %5, align 8
  %7 = getelementptr inbounds i8, ptr %5, i64 8
  %8 = load ptr, ptr %7, align 8
  %.not8 = icmp eq ptr %6, %8
  br i1 %.not8, label %._crit_edge, label %.lr.ph

.lr.ph:                                           ; preds = %2, %.lr.ph
  %.sroa.05.09 = phi ptr [ %10, %.lr.ph ], [ %6, %2 ]
  %9 = load ptr, ptr %.sroa.05.09, align 8
  tail call void @_ZN35cmGeneratorExpressionEvaluationFile16CreateOutputFileEP16cmLocalGeneratorRKNSt7__cxx1112basic_stringIcSt11char_traitsIcESaIcEEE(ptr noundef nonnull align 8 dereferenceable(152) %9, ptr noundef nonnull %0, ptr noundef nonnull align 8 dereferenceable(32) %1)
  %10 = getelementptr inbounds i8, ptr %.sroa.05.09, i64 8
  %.not = icmp eq ptr %10, %8
  br i1 %.not, label %._crit_edge, label %.lr.ph

._crit_edge:                                      ; preds = %.lr.ph, %2
  ret void
}